; Function Attrs: mustprogress nofree norecurse nosync nounwind willreturn memory(read, inaccessiblemem: none) uwtable
define noundef zeroext i1 @_ZNK7rocksdb32FragmentedRangeTombstoneIterator5ValidEv(ptr nocapture noundef nonnull readonly align 8 dereferenceable(200) %this) unnamed_addr #5 align 2 {
entry:
  %tombstones_ = getelementptr inbounds i8, ptr %this, i64 104
  %0 = load ptr, ptr %tombstones_, align 8
  %cmp.not = icmp eq ptr %0, null
  br i1 %cmp.not, label %land.end, label %land.rhs

land.rhs:                                         ; preds = %entry
  %pos_ = getelementptr inbounds i8, ptr %this, i64 136
  %_M_finish.i.i = getelementptr inbounds i8, ptr %0, i64 8
  %1 = load ptr, ptr %_M_finish.i.i, align 8
  %2 = load ptr, ptr %pos_, align 8
  %cmp.i = icmp ne ptr %2, %1
  br label %land.end

land.end:                                         ; preds = %land.rhs, %entry
  %3 = phi i1 [ false, %entry ], [ %cmp.i, %land.rhs ]
  ret i1 %3
}